target datalayout = "e-m:e-p270:32:32-p271:32:32-p272:64:64-i64:64-i128:128-f80:128-n8:16:32:64-S128"
target triple = "x86_64-pc-linux-gnu"

%struct.stat = type { i64, i64, i64, i32, i32, i32, i32, i64, i64, i64, i64, %struct.timespec, %struct.timespec, %struct.timespec, [3 x i64] }
%struct.timespec = type { i64, i64 }
%struct.dirent = type { i64, i64, i16, i8, [256 x i8] }

@stderr = external global ptr, align 8
@.str.164 = private unnamed_addr constant [32 x i8] c"Cannot open directory '%s': %s\0A\00", align 1
@.str.165 = private unnamed_addr constant [3 x i8] c"..\00", align 1
@.str.166 = private unnamed_addr constant [2 x i8] c".\00", align 1
@.str.167 = private unnamed_addr constant [23 x i8] c"readdir(%s) error: %s\0A\00", align 1

; Function Attrs: nounwind uwtable
define internal ptr @UTIL_realloc(ptr noundef %0, i64 noundef %1) #0 {
  %3 = alloca ptr, align 8
  %4 = alloca ptr, align 8
  %5 = alloca i64, align 8
  %6 = alloca ptr, align 8
  %7 = alloca i32, align 4
  store ptr %0, ptr %4, align 8, !tbaa !35
  store i64 %1, ptr %5, align 8, !tbaa !15
  call void @llvm.lifetime.start.p0(i64 8, ptr %6) #12
  %8 = load ptr, ptr %4, align 8, !tbaa !35
  %9 = load i64, ptr %5, align 8, !tbaa !15
  %10 = call ptr @realloc(ptr noundef %8, i64 noundef %9) #17
  store ptr %10, ptr %6, align 8, !tbaa !35
  %11 = load ptr, ptr %6, align 8, !tbaa !35
  %12 = icmp ne ptr %11, null
  br i1 %12, label %13, label %15

13:                                               ; preds = %2
  %14 = load ptr, ptr %6, align 8, !tbaa !35
  store ptr %14, ptr %3, align 8
  store i32 1, ptr %7, align 4
  br label %17

15:                                               ; preds = %2
  %16 = load ptr, ptr %4, align 8, !tbaa !35
  call void @free(ptr noundef %16) #12
  store ptr null, ptr %3, align 8
  store i32 1, ptr %7, align 4
  br label %17

17:                                               ; preds = %15, %13
  call void @llvm.lifetime.end.p0(i64 8, ptr %6) #12
  %18 = load ptr, ptr %3, align 8
  ret ptr %18
}

; Function Attrs: nounwind uwtable
define internal i32 @UTIL_isDirectory(ptr noundef %0) #0 {
  %2 = alloca i32, align 4
  %3 = alloca ptr, align 8
  %4 = alloca %struct.stat, align 8
  %5 = alloca i32, align 4
  %6 = alloca i32, align 4
  store ptr %0, ptr %3, align 8, !tbaa !11
  call void @llvm.lifetime.start.p0(i64 144, ptr %4) #12
  call void @llvm.lifetime.start.p0(i64 4, ptr %5) #12
  %7 = load ptr, ptr %3, align 8, !tbaa !11
  %8 = call i32 @stat(ptr noundef %7, ptr noundef %4) #12
  store i32 %8, ptr %5, align 4, !tbaa !4
  %9 = load i32, ptr %5, align 4, !tbaa !4
  %10 = icmp ne i32 %9, 0
  br i1 %10, label %11, label %12

11:                                               ; preds = %1
  store i32 0, ptr %2, align 4
  store i32 1, ptr %6, align 4
  br label %18

12:                                               ; preds = %1
  %13 = getelementptr inbounds nuw %struct.stat, ptr %4, i32 0, i32 3
  %14 = load i32, ptr %13, align 8, !tbaa !32
  %15 = and i32 %14, 61440
  %16 = icmp eq i32 %15, 16384
  %17 = zext i1 %16 to i32
  store i32 %17, ptr %2, align 4
  store i32 1, ptr %6, align 4
  br label %18

18:                                               ; preds = %12, %11
  call void @llvm.lifetime.end.p0(i64 4, ptr %5) #12
  call void @llvm.lifetime.end.p0(i64 144, ptr %4) #12
  %19 = load i32, ptr %2, align 4
  ret i32 %19
}

; Function Attrs: nounwind uwtable
define internal i32 @UTIL_prepareFileList(ptr noundef %0, ptr noundef %1, ptr noundef %2, ptr noundef %3) #0 {
  %5 = alloca i32, align 4
  %6 = alloca ptr, align 8
  %7 = alloca ptr, align 8
  %8 = alloca ptr, align 8
  %9 = alloca ptr, align 8
  %10 = alloca ptr, align 8
  %11 = alloca ptr, align 8
  %12 = alloca i64, align 8
  %13 = alloca i32, align 4
  %14 = alloca i32, align 4
  %15 = alloca ptr, align 8
  %16 = alloca i64, align 8
  %17 = alloca i64, align 8
  %18 = alloca i64, align 8
  store ptr %0, ptr %6, align 8, !tbaa !11
  store ptr %1, ptr %7, align 8, !tbaa !8
  store ptr %2, ptr %8, align 8, !tbaa !36
  store ptr %3, ptr %9, align 8, !tbaa !8
  call void @llvm.lifetime.start.p0(i64 8, ptr %10) #12
  call void @llvm.lifetime.start.p0(i64 8, ptr %11) #12
  call void @llvm.lifetime.start.p0(i64 8, ptr %12) #12
  call void @llvm.lifetime.start.p0(i64 4, ptr %13) #12
  store i32 0, ptr %13, align 4, !tbaa !4
  %19 = load ptr, ptr %6, align 8, !tbaa !11
  %20 = call ptr @opendir(ptr noundef %19)
  store ptr %20, ptr %10, align 8, !tbaa !38
  %21 = icmp ne ptr %20, null
  br i1 %21, label %29, label %22

22:                                               ; preds = %4
  %23 = load ptr, ptr @stderr, align 8, !tbaa !17
  %24 = load ptr, ptr %6, align 8, !tbaa !11
  %25 = call ptr @__errno_location() #18
  %26 = load i32, ptr %25, align 4, !tbaa !4
  %27 = call ptr @strerror(i32 noundef %26) #12
  %28 = call i32 (ptr, ptr, ...) @fprintf(ptr noundef %23, ptr noundef @.str.164, ptr noundef %24, ptr noundef %27) #12
  store i32 0, ptr %5, align 4
  store i32 1, ptr %14, align 4
  br label %208

29:                                               ; preds = %4
  %30 = load ptr, ptr %6, align 8, !tbaa !11
  %31 = call i64 @strlen(ptr noundef %30) #14
  store i64 %31, ptr %12, align 8, !tbaa !15
  %32 = call ptr @__errno_location() #18
  store i32 0, ptr %32, align 4, !tbaa !4
  br label %33

33:                                               ; preds = %189, %187, %29
  %34 = load ptr, ptr %10, align 8, !tbaa !38
  %35 = call ptr @readdir(ptr noundef %34)
  store ptr %35, ptr %11, align 8, !tbaa !40
  %36 = icmp ne ptr %35, null
  br i1 %36, label %37, label %190

37:                                               ; preds = %33
  call void @llvm.lifetime.start.p0(i64 8, ptr %15) #12
  call void @llvm.lifetime.start.p0(i64 8, ptr %16) #12
  call void @llvm.lifetime.start.p0(i64 8, ptr %17) #12
  %38 = load ptr, ptr %11, align 8, !tbaa !40
  %39 = getelementptr inbounds nuw %struct.dirent, ptr %38, i32 0, i32 4
  %40 = getelementptr inbounds [256 x i8], ptr %39, i64 0, i64 0
  %41 = call i32 @strcmp(ptr noundef %40, ptr noundef @.str.165) #14
  %42 = icmp eq i32 %41, 0
  br i1 %42, label %49, label %43

43:                                               ; preds = %37
  %44 = load ptr, ptr %11, align 8, !tbaa !40
  %45 = getelementptr inbounds nuw %struct.dirent, ptr %44, i32 0, i32 4
  %46 = getelementptr inbounds [256 x i8], ptr %45, i64 0, i64 0
  %47 = call i32 @strcmp(ptr noundef %46, ptr noundef @.str.166) #14
  %48 = icmp eq i32 %47, 0
  br i1 %48, label %49, label %50

49:                                               ; preds = %43, %37
  store i32 2, ptr %14, align 4
  br label %187, !llvm.loop !42

50:                                               ; preds = %43
  %51 = load ptr, ptr %11, align 8, !tbaa !40
  %52 = getelementptr inbounds nuw %struct.dirent, ptr %51, i32 0, i32 4
  %53 = getelementptr inbounds [256 x i8], ptr %52, i64 0, i64 0
  %54 = call i64 @strlen(ptr noundef %53) #14
  store i64 %54, ptr %16, align 8, !tbaa !15
  %55 = load i64, ptr %12, align 8, !tbaa !15
  %56 = load i64, ptr %16, align 8, !tbaa !15
  %57 = add i64 %55, %56
  %58 = add i64 %57, 2
  %59 = call noalias ptr @malloc(i64 noundef %58) #16
  store ptr %59, ptr %15, align 8, !tbaa !11
  %60 = load ptr, ptr %15, align 8, !tbaa !11
  %61 = icmp ne ptr %60, null
  br i1 %61, label %65, label %62

62:                                               ; preds = %50
  %63 = load ptr, ptr %10, align 8, !tbaa !38
  %64 = call i32 @closedir(ptr noundef %63)
  store i32 0, ptr %5, align 4
  store i32 1, ptr %14, align 4
  br label %187

65:                                               ; preds = %50
  %66 = load ptr, ptr %15, align 8, !tbaa !11
  %67 = load ptr, ptr %6, align 8, !tbaa !11
  %68 = load i64, ptr %12, align 8, !tbaa !15
  call void @llvm.memcpy.p0.p0.i64(ptr align 1 %66, ptr align 1 %67, i64 %68, i1 false)
  %69 = load ptr, ptr %15, align 8, !tbaa !11
  %70 = load i64, ptr %12, align 8, !tbaa !15
  %71 = getelementptr inbounds nuw i8, ptr %69, i64 %70
  store i8 47, ptr %71, align 1, !tbaa !19
  %72 = load ptr, ptr %15, align 8, !tbaa !11
  %73 = load i64, ptr %12, align 8, !tbaa !15
  %74 = getelementptr inbounds nuw i8, ptr %72, i64 %73
  %75 = getelementptr inbounds i8, ptr %74, i64 1
  %76 = load ptr, ptr %11, align 8, !tbaa !40
  %77 = getelementptr inbounds nuw %struct.dirent, ptr %76, i32 0, i32 4
  %78 = getelementptr inbounds [256 x i8], ptr %77, i64 0, i64 0
  %79 = load i64, ptr %16, align 8, !tbaa !15
  call void @llvm.memcpy.p0.p0.i64(ptr align 1 %75, ptr align 1 %78, i64 %79, i1 false)
  %80 = load i64, ptr %12, align 8, !tbaa !15
  %81 = add i64 %80, 1
  %82 = load i64, ptr %16, align 8, !tbaa !15
  %83 = add i64 %81, %82
  store i64 %83, ptr %17, align 8, !tbaa !15
  %84 = load ptr, ptr %15, align 8, !tbaa !11
  %85 = load i64, ptr %17, align 8, !tbaa !15
  %86 = getelementptr inbounds nuw i8, ptr %84, i64 %85
  store i8 0, ptr %86, align 1, !tbaa !19
  %87 = load ptr, ptr %15, align 8, !tbaa !11
  %88 = call i32 @UTIL_isDirectory(ptr noundef %87)
  %89 = icmp ne i32 %88, 0
  br i1 %89, label %90, label %106

90:                                               ; preds = %65
  %91 = load ptr, ptr %15, align 8, !tbaa !11
  %92 = load ptr, ptr %7, align 8, !tbaa !8
  %93 = load ptr, ptr %8, align 8, !tbaa !36
  %94 = load ptr, ptr %9, align 8, !tbaa !8
  %95 = call i32 @UTIL_prepareFileList(ptr noundef %91, ptr noundef %92, ptr noundef %93, ptr noundef %94)
  %96 = load i32, ptr %13, align 4, !tbaa !4
  %97 = add nsw i32 %96, %95
  store i32 %97, ptr %13, align 4, !tbaa !4
  %98 = load ptr, ptr %7, align 8, !tbaa !8
  %99 = load ptr, ptr %98, align 8, !tbaa !11
  %100 = icmp eq ptr %99, null
  br i1 %100, label %101, label %105

101:                                              ; preds = %90
  %102 = load ptr, ptr %15, align 8, !tbaa !11
  call void @free(ptr noundef %102) #12
  %103 = load ptr, ptr %10, align 8, !tbaa !38
  %104 = call i32 @closedir(ptr noundef %103)
  store i32 0, ptr %5, align 4
  store i32 1, ptr %14, align 4
  br label %187

105:                                              ; preds = %90
  br label %184

106:                                              ; preds = %65
  %107 = load ptr, ptr %7, align 8, !tbaa !8
  %108 = load ptr, ptr %107, align 8, !tbaa !11
  %109 = load ptr, ptr %8, align 8, !tbaa !36
  %110 = load i64, ptr %109, align 8, !tbaa !15
  %111 = getelementptr inbounds nuw i8, ptr %108, i64 %110
  %112 = load i64, ptr %17, align 8, !tbaa !15
  %113 = getelementptr inbounds nuw i8, ptr %111, i64 %112
  %114 = load ptr, ptr %9, align 8, !tbaa !8
  %115 = load ptr, ptr %114, align 8, !tbaa !11
  %116 = icmp uge ptr %113, %115
  br i1 %116, label %117, label %147

117:                                              ; preds = %106
  call void @llvm.lifetime.start.p0(i64 8, ptr %18) #12
  %118 = load ptr, ptr %9, align 8, !tbaa !8
  %119 = load ptr, ptr %118, align 8, !tbaa !11
  %120 = load ptr, ptr %7, align 8, !tbaa !8
  %121 = load ptr, ptr %120, align 8, !tbaa !11
  %122 = ptrtoint ptr %119 to i64
  %123 = ptrtoint ptr %121 to i64
  %124 = sub i64 %122, %123
  %125 = add i64 %124, 8192
  store i64 %125, ptr %18, align 8, !tbaa !15
  %126 = load ptr, ptr %7, align 8, !tbaa !8
  %127 = load ptr, ptr %126, align 8, !tbaa !11
  %128 = load i64, ptr %18, align 8, !tbaa !15
  %129 = call ptr @UTIL_realloc(ptr noundef %127, i64 noundef %128)
  %130 = load ptr, ptr %7, align 8, !tbaa !8
  store ptr %129, ptr %130, align 8, !tbaa !11
  %131 = load ptr, ptr %7, align 8, !tbaa !8
  %132 = load ptr, ptr %131, align 8, !tbaa !11
  %133 = load i64, ptr %18, align 8, !tbaa !15
  %134 = getelementptr inbounds nuw i8, ptr %132, i64 %133
  %135 = load ptr, ptr %9, align 8, !tbaa !8
  store ptr %134, ptr %135, align 8, !tbaa !11
  %136 = load ptr, ptr %7, align 8, !tbaa !8
  %137 = load ptr, ptr %136, align 8, !tbaa !11
  %138 = icmp eq ptr %137, null
  br i1 %138, label %139, label %143

139:                                              ; preds = %117
  %140 = load ptr, ptr %15, align 8, !tbaa !11
  call void @free(ptr noundef %140) #12
  %141 = load ptr, ptr %10, align 8, !tbaa !38
  %142 = call i32 @closedir(ptr noundef %141)
  store i32 0, ptr %5, align 4
  store i32 1, ptr %14, align 4
  br label %144

143:                                              ; preds = %117
  store i32 0, ptr %14, align 4
  br label %144

144:                                              ; preds = %143, %139
  call void @llvm.lifetime.end.p0(i64 8, ptr %18) #12
  %145 = load i32, ptr %14, align 4
  switch i32 %145, label %187 [
    i32 0, label %146
  ]

146:                                              ; preds = %144
  br label %147

147:                                              ; preds = %146, %106
  %148 = load ptr, ptr %7, align 8, !tbaa !8
  %149 = load ptr, ptr %148, align 8, !tbaa !11
  %150 = load ptr, ptr %8, align 8, !tbaa !36
  %151 = load i64, ptr %150, align 8, !tbaa !15
  %152 = getelementptr inbounds nuw i8, ptr %149, i64 %151
  %153 = load i64, ptr %17, align 8, !tbaa !15
  %154 = getelementptr inbounds nuw i8, ptr %152, i64 %153
  %155 = load ptr, ptr %9, align 8, !tbaa !8
  %156 = load ptr, ptr %155, align 8, !tbaa !11
  %157 = icmp ult ptr %154, %156
  br i1 %157, label %158, label %183

158:                                              ; preds = %147
  %159 = load ptr, ptr %7, align 8, !tbaa !8
  %160 = load ptr, ptr %159, align 8, !tbaa !11
  %161 = load ptr, ptr %8, align 8, !tbaa !36
  %162 = load i64, ptr %161, align 8, !tbaa !15
  %163 = getelementptr inbounds nuw i8, ptr %160, i64 %162
  %164 = load ptr, ptr %15, align 8, !tbaa !11
  %165 = load ptr, ptr %9, align 8, !tbaa !8
  %166 = load ptr, ptr %165, align 8, !tbaa !11
  %167 = load ptr, ptr %7, align 8, !tbaa !8
  %168 = load ptr, ptr %167, align 8, !tbaa !11
  %169 = load ptr, ptr %8, align 8, !tbaa !36
  %170 = load i64, ptr %169, align 8, !tbaa !15
  %171 = getelementptr inbounds nuw i8, ptr %168, i64 %170
  %172 = ptrtoint ptr %166 to i64
  %173 = ptrtoint ptr %171 to i64
  %174 = sub i64 %172, %173
  %175 = call ptr @strncpy(ptr noundef %163, ptr noundef %164, i64 noundef %174) #12
  %176 = load i64, ptr %17, align 8, !tbaa !15
  %177 = add i64 %176, 1
  %178 = load ptr, ptr %8, align 8, !tbaa !36
  %179 = load i64, ptr %178, align 8, !tbaa !15
  %180 = add i64 %179, %177
  store i64 %180, ptr %178, align 8, !tbaa !15
  %181 = load i32, ptr %13, align 4, !tbaa !4
  %182 = add nsw i32 %181, 1
  store i32 %182, ptr %13, align 4, !tbaa !4
  br label %183

183:                                              ; preds = %158, %147
  br label %184

184:                                              ; preds = %183, %105
  %185 = load ptr, ptr %15, align 8, !tbaa !11
  call void @free(ptr noundef %185) #12
  %186 = call ptr @__errno_location() #18
  store i32 0, ptr %186, align 4, !tbaa !4
  store i32 0, ptr %14, align 4
  br label %187

187:                                              ; preds = %184, %144, %101, %62, %49
  call void @llvm.lifetime.end.p0(i64 8, ptr %17) #12
  call void @llvm.lifetime.end.p0(i64 8, ptr %16) #12
  call void @llvm.lifetime.end.p0(i64 8, ptr %15) #12
  %188 = load i32, ptr %14, align 4
  switch i32 %188, label %208 [
    i32 0, label %189
    i32 2, label %33
  ]

189:                                              ; preds = %187
  br label %33, !llvm.loop !42

190:                                              ; preds = %33
  %191 = call ptr @__errno_location() #18
  %192 = load i32, ptr %191, align 4, !tbaa !4
  %193 = icmp ne i32 %192, 0
  br i1 %193, label %194, label %204

194:                                              ; preds = %190
  %195 = load ptr, ptr @stderr, align 8, !tbaa !17
  %196 = load ptr, ptr %6, align 8, !tbaa !11
  %197 = call ptr @__errno_location() #18
  %198 = load i32, ptr %197, align 4, !tbaa !4
  %199 = call ptr @strerror(i32 noundef %198) #12
  %200 = call i32 (ptr, ptr, ...) @fprintf(ptr noundef %195, ptr noundef @.str.167, ptr noundef %196, ptr noundef %199) #12
  %201 = load ptr, ptr %7, align 8, !tbaa !8
  %202 = load ptr, ptr %201, align 8, !tbaa !11
  call void @free(ptr noundef %202) #12
  %203 = load ptr, ptr %7, align 8, !tbaa !8
  store ptr null, ptr %203, align 8, !tbaa !11
  br label %204

204:                                              ; preds = %194, %190
  %205 = load ptr, ptr %10, align 8, !tbaa !38
  %206 = call i32 @closedir(ptr noundef %205)
  %207 = load i32, ptr %13, align 4, !tbaa !4
  store i32 %207, ptr %5, align 4
  store i32 1, ptr %14, align 4
  br label %208

208:                                              ; preds = %204, %187, %22
  call void @llvm.lifetime.end.p0(i64 4, ptr %13) #12
  call void @llvm.lifetime.end.p0(i64 8, ptr %12) #12
  call void @llvm.lifetime.end.p0(i64 8, ptr %11) #12
  call void @llvm.lifetime.end.p0(i64 8, ptr %10) #12
  %209 = load i32, ptr %5, align 4
  ret i32 %209
}