; Function Attrs: nounwind uwtable
define internal fastcc i32 @UTIL_prepareFileList(ptr noundef %0, ptr noundef nonnull captures(none) %1, ptr noundef nonnull captures(none) %2, ptr noundef nonnull captures(none) %3) unnamed_addr #0 {
  %5 = alloca %struct.stat, align 8
  %6 = tail call ptr @opendir(ptr noundef %0)
  %.not = icmp eq ptr %6, null
  %7 = tail call ptr @__errno_location() #30
  br i1 %.not, label %8, label %13

8:                                                ; preds = %4
  %9 = load ptr, ptr @stderr, align 8, !tbaa !11
  %10 = load i32, ptr %7, align 4, !tbaa !9
  %11 = tail call ptr @strerror(i32 noundef %10) #22
  %12 = tail call i32 (ptr, ptr, ...) @fprintf(ptr noundef %9, ptr noundef nonnull @.str.164, ptr noundef %0, ptr noundef %11) #23
  br label %.thread

13:                                               ; preds = %4
  %14 = tail call i64 @strlen(ptr noundef nonnull dereferenceable(1) %0) #25
  store i32 0, ptr %7, align 4, !tbaa !9
  %15 = tail call ptr @readdir(ptr noundef nonnull %6) #22
  %.not8099 = icmp eq ptr %15, null
  br i1 %.not8099, label %._crit_edge, label %sub_0.lr.ph

sub_0.lr.ph:                                      ; preds = %13
  %16 = add i64 %14, 2
  %17 = add i64 %14, 1
  %18 = getelementptr inbounds nuw i8, ptr %5, i64 24
  br label %sub_0

sub_0:                                            ; preds = %sub_0.lr.ph, %84
  %19 = phi ptr [ %15, %sub_0.lr.ph ], [ %85, %84 ]
  %.069100 = phi i32 [ 0, %sub_0.lr.ph ], [ %.170, %84 ]
  %20 = getelementptr inbounds nuw i8, ptr %19, i64 19
  %21 = load i8, ptr %20, align 1
  %.not101 = icmp eq i8 %21, 46
  br i1 %.not101, label %sub_1, label %.tail90.thread

sub_1:                                            ; preds = %sub_0
  %22 = getelementptr inbounds nuw i8, ptr %19, i64 20
  %23 = load i8, ptr %22, align 1
  %.not102 = icmp eq i8 %23, 46
  br i1 %.not102, label %.tail, label %.tail90

.tail:                                            ; preds = %sub_1
  %24 = getelementptr inbounds nuw i8, ptr %19, i64 21
  %25 = load i8, ptr %24, align 1
  %26 = icmp eq i8 %25, 0
  br i1 %26, label %84, label %.tail90, !llvm.loop !26

.tail90:                                          ; preds = %.tail, %sub_1
  %27 = getelementptr inbounds nuw i8, ptr %19, i64 20
  %28 = load i8, ptr %27, align 1
  %29 = icmp eq i8 %28, 0
  br i1 %29, label %84, label %.tail90.thread, !llvm.loop !26

.tail90.thread:                                   ; preds = %sub_0, %.tail90
  %30 = tail call i64 @strlen(ptr noundef nonnull dereferenceable(1) %20) #25
  %31 = add i64 %16, %30
  %32 = tail call noalias ptr @malloc(i64 noundef %31) #28
  %.not82 = icmp eq ptr %32, null
  br i1 %.not82, label %33, label %35

33:                                               ; preds = %.tail90.thread
  %34 = tail call i32 @closedir(ptr noundef nonnull %6)
  br label %.thread

35:                                               ; preds = %.tail90.thread
  tail call void @llvm.memcpy.p0.p0.i64(ptr nonnull align 1 %32, ptr nonnull align 1 %0, i64 %14, i1 false)
  %36 = getelementptr inbounds nuw i8, ptr %32, i64 %14
  store i8 47, ptr %36, align 1, !tbaa !4
  %37 = getelementptr inbounds nuw i8, ptr %36, i64 1
  tail call void @llvm.memcpy.p0.p0.i64(ptr nonnull align 1 %37, ptr nonnull align 1 %20, i64 %30, i1 false)
  %38 = add i64 %17, %30
  %39 = getelementptr inbounds nuw i8, ptr %32, i64 %38
  store i8 0, ptr %39, align 1, !tbaa !4
  call void @llvm.lifetime.start.p0(i64 144, ptr nonnull %5) #22
  %40 = call i32 @stat(ptr noundef nonnull readonly %32, ptr noundef nonnull %5) #22
  %.not.i = icmp ne i32 %40, 0
  %41 = load i32, ptr %18, align 8
  %42 = and i32 %41, 61440
  %43 = icmp ne i32 %42, 16384
  %narrow.i.not = select i1 %.not.i, i1 true, i1 %43
  call void @llvm.lifetime.end.p0(i64 144, ptr nonnull %5) #22
  br i1 %narrow.i.not, label %51, label %44

44:                                               ; preds = %35
  %45 = tail call fastcc i32 @UTIL_prepareFileList(ptr noundef nonnull %32, ptr noundef %1, ptr noundef %2, ptr noundef %3)
  %46 = add nsw i32 %45, %.069100
  %47 = load ptr, ptr %1, align 8, !tbaa !14
  %48 = icmp eq ptr %47, null
  br i1 %48, label %49, label %83

49:                                               ; preds = %44
  tail call void @free(ptr noundef nonnull %32) #22
  %50 = tail call i32 @closedir(ptr noundef nonnull %6)
  br label %.thread

51:                                               ; preds = %35
  %52 = load ptr, ptr %1, align 8, !tbaa !14
  %53 = load i64, ptr %2, align 8, !tbaa !18
  %54 = getelementptr inbounds nuw i8, ptr %52, i64 %53
  %55 = getelementptr inbounds nuw i8, ptr %54, i64 %38
  %56 = load ptr, ptr %3, align 8, !tbaa !14
  %.not84 = icmp ult ptr %55, %56
  br i1 %.not84, label %.critedge, label %57

57:                                               ; preds = %51
  %58 = ptrtoint ptr %56 to i64
  %59 = ptrtoint ptr %52 to i64
  %60 = sub i64 %58, %59
  %61 = add i64 %60, 8192
  %62 = tail call ptr @realloc(ptr noundef %52, i64 noundef %61) #29
  %.not.i86 = icmp eq ptr %62, null
  br i1 %.not.i86, label %63, label %UTIL_realloc.exit

63:                                               ; preds = %57
  tail call void @free(ptr noundef %52) #22
  br label %UTIL_realloc.exit

UTIL_realloc.exit:                                ; preds = %57, %63
  store ptr %62, ptr %1, align 8, !tbaa !14
  %64 = getelementptr inbounds nuw i8, ptr %62, i64 %61
  store ptr %64, ptr %3, align 8, !tbaa !14
  %65 = load ptr, ptr %1, align 8, !tbaa !14
  %.not85 = icmp eq ptr %65, null
  br i1 %.not85, label %66, label %UTIL_realloc.exit..critedge_crit_edge

UTIL_realloc.exit..critedge_crit_edge:            ; preds = %UTIL_realloc.exit
  %.pre = load i64, ptr %2, align 8, !tbaa !18
  br label %.critedge

66:                                               ; preds = %UTIL_realloc.exit
  tail call void @free(ptr noundef nonnull %32) #22
  %67 = tail call i32 @closedir(ptr noundef nonnull %6)
  br label %.thread

.critedge:                                        ; preds = %UTIL_realloc.exit..critedge_crit_edge, %51
  %68 = phi ptr [ %64, %UTIL_realloc.exit..critedge_crit_edge ], [ %56, %51 ]
  %69 = phi i64 [ %.pre, %UTIL_realloc.exit..critedge_crit_edge ], [ %53, %51 ]
  %70 = phi ptr [ %65, %UTIL_realloc.exit..critedge_crit_edge ], [ %52, %51 ]
  %71 = getelementptr inbounds nuw i8, ptr %70, i64 %69
  %72 = getelementptr inbounds nuw i8, ptr %71, i64 %38
  %73 = icmp ult ptr %72, %68
  br i1 %73, label %74, label %83

74:                                               ; preds = %.critedge
  %75 = ptrtoint ptr %68 to i64
  %76 = ptrtoint ptr %71 to i64
  %77 = sub i64 %75, %76
  %78 = tail call ptr @strncpy(ptr noundef %71, ptr noundef nonnull %32, i64 noundef %77) #22
  %79 = add i64 %38, 1
  %80 = load i64, ptr %2, align 8, !tbaa !18
  %81 = add i64 %79, %80
  store i64 %81, ptr %2, align 8, !tbaa !18
  %82 = add nsw i32 %.069100, 1
  br label %83

83:                                               ; preds = %.critedge, %74, %44
  %.271 = phi i32 [ %46, %44 ], [ %82, %74 ], [ %.069100, %.critedge ]
  tail call void @free(ptr noundef nonnull %32) #22
  store i32 0, ptr %7, align 4, !tbaa !9
  br label %84

84:                                               ; preds = %.tail, %.tail90, %83
  %.170 = phi i32 [ %.271, %83 ], [ %.069100, %.tail90 ], [ %.069100, %.tail ]
  %85 = tail call ptr @readdir(ptr noundef nonnull %6) #22
  %.not80 = icmp eq ptr %85, null
  br i1 %.not80, label %._crit_edge, label %sub_0

._crit_edge:                                      ; preds = %84, %13
  %.069.lcssa = phi i32 [ 0, %13 ], [ %.170, %84 ]
  %86 = load i32, ptr %7, align 4, !tbaa !9
  %.not81 = icmp eq i32 %86, 0
  br i1 %.not81, label %92, label %87

87:                                               ; preds = %._crit_edge
  %88 = load ptr, ptr @stderr, align 8, !tbaa !11
  %89 = tail call ptr @strerror(i32 noundef %86) #22
  %90 = tail call i32 (ptr, ptr, ...) @fprintf(ptr noundef %88, ptr noundef nonnull @.str.167, ptr noundef nonnull %0, ptr noundef %89) #23
  %91 = load ptr, ptr %1, align 8, !tbaa !14
  tail call void @free(ptr noundef %91) #22
  store ptr null, ptr %1, align 8, !tbaa !14
  br label %92

92:                                               ; preds = %87, %._crit_edge
  %93 = tail call i32 @closedir(ptr noundef nonnull %6)
  br label %.thread

.thread:                                          ; preds = %33, %66, %49, %92, %8
  %.0 = phi i32 [ %.069.lcssa, %92 ], [ 0, %8 ], [ 0, %49 ], [ 0, %66 ], [ 0, %33 ]
  ret i32 %.0
}